Certificate:
    Data:
        Version: 3 (0x2)
        Serial Number: 1 (0x1)
        Signature Algorithm: ecdsa-with-SHA256
        Issuer: C=CH, ST=Zurich, L=Zurich, O=ETHZ, OU=Applied Sec Lab, CN=dakota
        Validity
            Not Before: Nov 12 15:22:49 2023 GMT
            Not After : Nov 11 15:22:49 2024 GMT
        Subject: C=CH, ST=Zurich, O=ETHZ, OU=Applied Sec Lab, CN=auth_manager
        Subject Public Key Info:
            Public Key Algorithm: id-ecPublicKey
                Public-Key: (384 bit)
                pub:
                    04:78:f7:63:1f:7f:cf:78:40:5a:39:f9:76:79:9e:
                    81:c6:74:e4:72:0a:b9:6e:c5:b6:3a:5e:d5:d7:36:
                    34:16:40:be:1b:c4:19:43:5e:dc:c3:2d:fc:7f:b0:
                    97:dd:4e:3a:4a:49:84:84:6e:a2:9e:a3:fa:92:01:
                    ca:d3:a1:43:f0:ca:5e:10:15:66:cb:71:18:21:07:
                    f5:3a:57:d0:aa:d6:4f:4c:8a:bb:8d:38:8d:bb:60:
                    f8:38:ec:d1:f4:dd:fb
                ASN1 OID: secp384r1
                NIST CURVE: P-384
        X509v3 extensions:
            X509v3 Basic Constraints: 
                CA:FALSE
            X509v3 Subject Key Identifier: 
                CE:3C:00:16:AD:25:6B:70:87:07:10:15:1A:BB:77:6E:9B:E7:A5:29
            X509v3 Authority Key Identifier: 
                10:69:99:65:3D:7E:D1:17:57:79:24:B4:FA:FD:48:90:AB:04:5B:C7
    Signature Algorithm: ecdsa-with-SHA256
    Signature Value:
        30:65:02:30:62:c1:4a:28:3f:fa:a6:78:29:c7:ed:d0:55:ee:
        b9:cc:c4:f6:34:94:46:59:4a:ba:32:2b:80:26:01:5f:be:1d:
        98:a0:fe:58:cb:b3:0d:da:52:e5:20:e6:3f:28:e2:98:02:31:
        00:c7:13:bd:08:07:71:12:a6:65:9b:e7:d6:4f:02:ee:64:09:
        f6:ac:d0:81:fa:73:bb:2b:0b:28:0f:c0:37:4f:8b:5e:a3:e3:
        0d:aa:9a:13:e0:7e:6a:f9:3f:7f:39:01:97
-----BEGIN CERTIFICATE-----
MIICQDCCAcagAwIBAgIBATAKBggqhkjOPQQDAjBpMQswCQYDVQQGEwJDSDEPMA0G
A1UECAwGWnVyaWNoMQ8wDQYDVQQHDAZadXJpY2gxDTALBgNVBAoMBEVUSFoxGDAW
BgNVBAsMD0FwcGxpZWQgU2VjIExhYjEPMA0GA1UEAwwGZGFrb3RhMB4XDTIzMTEx
MjE1MjI0OVoXDTI0MTExMTE1MjI0OVowXjELMAkGA1UEBhMCQ0gxDzANBgNVBAgM
Blp1cmljaDENMAsGA1UECgwERVRIWjEYMBYGA1UECwwPQXBwbGllZCBTZWMgTGFi
MRUwEwYDVQQDDAxhdXRoX21hbmFnZXIwdjAQBgcqhkjOPQIBBgUrgQQAIgNiAAR4
92Mff894QFo5+XZ5noHGdORyCrluxbY6XtXXNjQWQL4bxBlDXtzDLfx/sJfdTjpK
SYSEbqKeo/qSAcrToUPwyl4QFWbLcRghB/U6V9Cq1k9MiruNOI27YPg47NH03fuj
TTBLMAkGA1UdEwQCMAAwHQYDVR0OBBYEFM48ABatJWtwhwcQFRq7d26b56UpMB8G
A1UdIwQYMBaAFBBpmWU9ftEXV3kktPr9SJCrBFvHMAoGCCqGSM49BAMCA2gAMGUC
MGLBSig/+qZ4Kcft0FXuuczE9jSURllKujIrgCYBX74dmKD+WMuzDdpS5SDmPyji
mAIxAMcTvQgHcRKmZZvn1k8C7mQJ9qzQgfpzuysLKA/AN0+LXqPjDaqaE+B+avk/
fzkBlw==
-----END CERTIFICATE-----
