Certificate:
    Data:
        Version: 3 (0x2)
        Serial Number: 2 (0x2)
        Signature Algorithm: ecdsa-with-SHA256
        Issuer: C=CH, ST=Zurich, L=Zurich, O=ETHZ, OU=Applied Sec Lab, CN=dakota
        Validity
            Not Before: Nov 12 15:27:02 2023 GMT
            Not After : Nov 11 15:27:02 2024 GMT
        Subject: C=CH, ST=Zurich, O=ETHZ, OU=Applied Sec Lab, CN=imovies_ca
        Subject Public Key Info:
            Public Key Algorithm: id-ecPublicKey
                Public-Key: (384 bit)
                pub:
                    04:9b:c1:f1:ab:be:ac:68:f8:08:62:e6:75:c7:21:
                    24:51:76:6c:55:98:38:04:d6:fc:54:ee:34:31:e9:
                    50:9e:fa:6e:25:2d:d2:32:3a:59:66:92:ba:79:fa:
                    d4:51:47:3a:65:63:23:ae:c1:c4:56:df:8c:6e:0c:
                    06:a8:a6:20:94:7b:ba:37:c8:08:eb:e5:89:36:a1:
                    ed:15:d0:c2:e4:1b:b8:6d:77:1b:46:2c:d6:51:dd:
                    a1:71:8f:96:35:ba:78
                ASN1 OID: secp384r1
                NIST CURVE: P-384
        X509v3 extensions:
            X509v3 Basic Constraints: 
                CA:FALSE
            X509v3 Subject Key Identifier: 
                1D:F5:B7:52:F4:1A:21:7B:0B:AE:1D:20:04:6B:00:77:E1:CA:35:D0
            X509v3 Authority Key Identifier: 
                10:69:99:65:3D:7E:D1:17:57:79:24:B4:FA:FD:48:90:AB:04:5B:C7
    Signature Algorithm: ecdsa-with-SHA256
    Signature Value:
        30:64:02:30:16:ae:b3:ca:be:96:2e:2a:c7:e8:19:1a:bb:4d:
        ea:52:b3:51:21:7c:1b:f3:e4:64:8d:14:9c:11:a6:75:0c:91:
        b1:32:be:94:08:25:c0:38:7d:67:83:11:5a:74:67:15:02:30:
        60:77:21:a6:34:53:23:39:9b:32:68:58:78:f2:79:ff:33:ca:
        69:ef:ea:42:71:f7:8a:6c:7d:98:22:dd:7b:7f:98:1b:50:55:
        50:ee:5b:9f:7e:13:8a:5d:1f:bc:cb:52
-----BEGIN CERTIFICATE-----
MIICPTCCAcSgAwIBAgIBAjAKBggqhkjOPQQDAjBpMQswCQYDVQQGEwJDSDEPMA0G
A1UECAwGWnVyaWNoMQ8wDQYDVQQHDAZadXJpY2gxDTALBgNVBAoMBEVUSFoxGDAW
BgNVBAsMD0FwcGxpZWQgU2VjIExhYjEPMA0GA1UEAwwGZGFrb3RhMB4XDTIzMTEx
MjE1MjcwMloXDTI0MTExMTE1MjcwMlowXDELMAkGA1UEBhMCQ0gxDzANBgNVBAgM
Blp1cmljaDENMAsGA1UECgwERVRIWjEYMBYGA1UECwwPQXBwbGllZCBTZWMgTGFi
MRMwEQYDVQQDDAppbW92aWVzX2NhMHYwEAYHKoZIzj0CAQYFK4EEACIDYgAEm8Hx
q76saPgIYuZ1xyEkUXZsVZg4BNb8VO40MelQnvpuJS3SMjpZZpK6efrUUUc6ZWMj
rsHEVt+MbgwGqKYglHu6N8gI6+WJNqHtFdDC5Bu4bXcbRizWUd2hcY+WNbp4o00w
SzAJBgNVHRMEAjAAMB0GA1UdDgQWBBQd9bdS9BohewuuHSAEawB34co10DAfBgNV
HSMEGDAWgBQQaZllPX7RF1d5JLT6/UiQqwRbxzAKBggqhkjOPQQDAgNnADBkAjAW
rrPKvpYuKsfoGRq7TepSs1EhfBvz5GSNFJwRpnUMkbEyvpQIJcA4fWeDEVp0ZxUC
MGB3IaY0UyM5mzJoWHjyef8zymnv6kJx94psfZgi3Xt/mBtQVVDuW59+E4pdH7zL
Ug==
-----END CERTIFICATE-----
