Certificate:
    Data:
        Version: 3 (0x2)
        Serial Number: 9 (0x9)
        Signature Algorithm: ecdsa-with-SHA256
        Issuer: C=CH, ST=Zurich, L=Zurich, O=ETHZ, OU=Applied Sec Lab, CN=dakota
        Validity
            Not Before: Nov 29 13:05:47 2023 GMT
            Not After : Nov 28 13:05:47 2024 GMT
        Subject: C=CH, ST=Zurich, O=ETHZ, OU=Applied Sec Lab, CN=Lukas/emailAddress=lb@imovies.ch/UID=lb
        Subject Public Key Info:
            Public Key Algorithm: id-ecPublicKey
                Public-Key: (256 bit)
                pub:
                    04:6d:f1:5b:ba:e9:67:4f:86:74:8f:c3:d5:ee:53:
                    b5:18:66:4e:86:c9:8e:fd:d1:9a:58:50:bb:53:a7:
                    69:40:45:1c:cd:06:c2:5e:94:02:eb:0a:e0:8c:5f:
                    2d:0a:6f:3d:4f:79:35:cf:c3:5a:a6:91:9e:99:0d:
                    3c:23:94:b0:72
                ASN1 OID: prime256v1
                NIST CURVE: P-256
        X509v3 extensions:
            X509v3 Basic Constraints: 
                CA:FALSE
            X509v3 Subject Key Identifier: 
                BB:FE:C0:CC:7C:ED:FB:D0:97:77:0D:31:82:36:C2:66:34:B2:44:AB
            X509v3 Authority Key Identifier: 
                10:69:99:65:3D:7E:D1:17:57:79:24:B4:FA:FD:48:90:AB:04:5B:C7
    Signature Algorithm: ecdsa-with-SHA256
    Signature Value:
        30:65:02:31:00:d2:5b:8b:79:d8:81:98:54:b8:19:3e:09:74:
        ad:a0:07:35:29:9e:f0:19:19:25:f4:82:3e:32:dd:61:6b:51:
        82:2f:a7:e8:0b:53:bd:5f:b8:a4:76:1f:61:c5:df:fa:1c:02:
        30:1d:84:12:f4:43:65:ea:0b:3d:83:1a:f1:dc:41:df:0e:87:
        f3:3e:14:7c:de:85:bf:99:3c:fd:d5:cb:c5:60:56:8c:35:3f:
        4d:ed:1b:70:33:3e:f6:e6:a8:77:76:09:54
-----BEGIN CERTIFICATE-----
MIICTzCCAdWgAwIBAgIBCTAKBggqhkjOPQQDAjBpMQswCQYDVQQGEwJDSDEPMA0G
A1UECAwGWnVyaWNoMQ8wDQYDVQQHDAZadXJpY2gxDTALBgNVBAoMBEVUSFoxGDAW
BgNVBAsMD0FwcGxpZWQgU2VjIExhYjEPMA0GA1UEAwwGZGFrb3RhMB4XDTIzMTEy
OTEzMDU0N1oXDTI0MTEyODEzMDU0N1owgYkxCzAJBgNVBAYTAkNIMQ8wDQYDVQQI
DAZadXJpY2gxDTALBgNVBAoMBEVUSFoxGDAWBgNVBAsMD0FwcGxpZWQgU2VjIExh
YjEOMAwGA1UEAwwFTHVrYXMxHDAaBgkqhkiG9w0BCQEWDWxiQGltb3ZpZXMuY2gx
EjAQBgoJkiaJk/IsZAEBDAJsYjBZMBMGByqGSM49AgEGCCqGSM49AwEHA0IABG3x
W7rpZ0+GdI/D1e5TtRhmTobJjv3RmlhQu1OnaUBFHM0Gwl6UAusK4IxfLQpvPU95
Nc/DWqaRnpkNPCOUsHKjTTBLMAkGA1UdEwQCMAAwHQYDVR0OBBYEFLv+wMx87fvQ
l3cNMYI2wmY0skSrMB8GA1UdIwQYMBaAFBBpmWU9ftEXV3kktPr9SJCrBFvHMAoG
CCqGSM49BAMCA2gAMGUCMQDSW4t52IGYVLgZPgl0raAHNSme8BkZJfSCPjLdYWtR
gi+n6AtTvV+4pHYfYcXf+hwCMB2EEvRDZeoLPYMa8dxB3w6H8z4UfN6Fv5k8/dXL
xWBWjDU/Te0bcDM+9uaod3YJVA==
-----END CERTIFICATE-----
