Certificate:
    Data:
        Version: 3 (0x2)
        Serial Number: 8 (0x8)
        Signature Algorithm: ecdsa-with-SHA256
        Issuer: C=CH, ST=Zurich, L=Zurich, O=ETHZ, OU=Applied Sec Lab, CN=dakota
        Validity
            Not Before: Nov 28 14:25:00 2023 GMT
            Not After : Nov 27 14:25:00 2024 GMT
        Subject: C=CH, ST=Zurich, O=ETHZ, OU=Applied Sec Lab, CN=Patrick/emailAddress=ps@imovies.ch/UID=ps
        Subject Public Key Info:
            Public Key Algorithm: id-ecPublicKey
                Public-Key: (256 bit)
                pub:
                    04:32:87:f1:2b:e0:91:bf:15:21:41:d1:c7:78:a7:
                    a5:9b:a7:92:b1:6d:5d:04:79:81:e9:ea:11:34:24:
                    59:bc:8f:ff:c6:4b:a9:83:23:bf:76:de:f3:48:9e:
                    de:95:a2:c0:52:d8:49:6c:27:82:bc:1c:dd:c4:7a:
                    cb:81:a7:68:c1
                ASN1 OID: prime256v1
                NIST CURVE: P-256
        X509v3 extensions:
            X509v3 Basic Constraints: 
                CA:FALSE
            X509v3 Subject Key Identifier: 
                CF:1D:C2:B1:1A:E1:51:54:B2:C9:9F:24:F4:10:BC:BC:35:F1:AA:10
            X509v3 Authority Key Identifier: 
                10:69:99:65:3D:7E:D1:17:57:79:24:B4:FA:FD:48:90:AB:04:5B:C7
    Signature Algorithm: ecdsa-with-SHA256
    Signature Value:
        30:66:02:31:00:a8:18:c4:7c:75:5b:a6:09:0f:15:10:a9:e7:
        06:69:db:d1:53:a0:30:46:ba:f1:e0:af:e1:1c:ef:81:e0:45:
        15:f1:1d:19:c8:37:86:ac:bc:f5:f6:c5:5d:f2:f5:3e:33:02:
        31:00:94:77:26:fa:5b:cc:fb:72:90:e7:4f:52:f5:84:cb:49:
        b8:7b:c8:31:cf:fd:5d:38:e3:aa:7b:e8:8a:b2:52:16:87:62:
        7b:16:58:dc:6c:dc:61:b8:e3:c1:b4:06:d1:e7
-----BEGIN CERTIFICATE-----
MIICUjCCAdegAwIBAgIBCDAKBggqhkjOPQQDAjBpMQswCQYDVQQGEwJDSDEPMA0G
A1UECAwGWnVyaWNoMQ8wDQYDVQQHDAZadXJpY2gxDTALBgNVBAoMBEVUSFoxGDAW
BgNVBAsMD0FwcGxpZWQgU2VjIExhYjEPMA0GA1UEAwwGZGFrb3RhMB4XDTIzMTEy
ODE0MjUwMFoXDTI0MTEyNzE0MjUwMFowgYsxCzAJBgNVBAYTAkNIMQ8wDQYDVQQI
DAZadXJpY2gxDTALBgNVBAoMBEVUSFoxGDAWBgNVBAsMD0FwcGxpZWQgU2VjIExh
YjEQMA4GA1UEAwwHUGF0cmljazEcMBoGCSqGSIb3DQEJARYNcHNAaW1vdmllcy5j
aDESMBAGCgmSJomT8ixkAQEMAnBzMFkwEwYHKoZIzj0CAQYIKoZIzj0DAQcDQgAE
MofxK+CRvxUhQdHHeKelm6eSsW1dBHmB6eoRNCRZvI//xkupgyO/dt7zSJ7elaLA
UthJbCeCvBzdxHrLgadowaNNMEswCQYDVR0TBAIwADAdBgNVHQ4EFgQUzx3CsRrh
UVSyyZ8k9BC8vDXxqhAwHwYDVR0jBBgwFoAUEGmZZT1+0RdXeSS0+v1IkKsEW8cw
CgYIKoZIzj0EAwIDaQAwZgIxAKgYxHx1W6YJDxUQqecGadvRU6AwRrrx4K/hHO+B
4EUV8R0ZyDeGrLz19sVd8vU+MwIxAJR3JvpbzPtykOdPUvWEy0m4e8gxz/1dOOOq
e+iKslIWh2J7FljcbNxhuOPBtAbR5w==
-----END CERTIFICATE-----
