Certificate:
    Data:
        Version: 3 (0x2)
        Serial Number: 6 (0x6)
        Signature Algorithm: ecdsa-with-SHA256
        Issuer: C=CH, ST=Zurich, L=Zurich, O=ETHZ, OU=Applied Sec Lab, CN=dakota
        Validity
            Not Before: Nov 28 14:06:45 2023 GMT
            Not After : Nov 27 14:06:45 2024 GMT
        Subject: C=CH, ST=Zurich, O=ETHZ, OU=Applied Sec Lab, CN=Daniele/emailAddress=test/UID=ts
        Subject Public Key Info:
            Public Key Algorithm: id-ecPublicKey
                Public-Key: (256 bit)
                pub:
                    04:95:fe:74:60:18:c3:e6:6b:71:aa:6b:36:39:d5:
                    dd:d0:f2:43:38:76:08:b4:7e:39:17:ec:b2:bb:55:
                    01:ba:8b:08:c7:ea:fe:95:8a:87:ec:59:8d:37:c0:
                    e1:cb:80:db:c8:a6:af:cc:5d:b1:46:cd:f4:38:c4:
                    4b:58:d9:7f:2b
                ASN1 OID: prime256v1
                NIST CURVE: P-256
        X509v3 extensions:
            X509v3 Basic Constraints: 
                CA:FALSE
            X509v3 Subject Key Identifier: 
                77:8E:25:2B:C5:5C:45:DD:99:B5:C8:1F:85:CC:BF:ED:CA:F5:B2:02
            X509v3 Authority Key Identifier: 
                10:69:99:65:3D:7E:D1:17:57:79:24:B4:FA:FD:48:90:AB:04:5B:C7
    Signature Algorithm: ecdsa-with-SHA256
    Signature Value:
        30:64:02:30:0d:7d:ce:90:7f:22:9a:13:e3:ea:46:92:6e:be:
        6e:ff:84:3f:4b:43:bb:4f:10:d6:cf:7d:7b:7a:93:e4:a3:b0:
        bf:96:8a:48:b4:f1:03:3a:3c:58:7f:eb:cd:7e:7a:b6:02:30:
        39:f3:18:7a:f0:6e:01:72:33:f1:f5:3a:fe:74:af:55:96:2c:
        5b:e6:99:4d:b3:98:0b:a2:86:be:7e:d8:eb:98:f8:ab:ad:9f:
        7d:44:2c:89:f0:94:21:7c:ff:32:0e:c9
-----BEGIN CERTIFICATE-----
MIICRzCCAc6gAwIBAgIBBjAKBggqhkjOPQQDAjBpMQswCQYDVQQGEwJDSDEPMA0G
A1UECAwGWnVyaWNoMQ8wDQYDVQQHDAZadXJpY2gxDTALBgNVBAoMBEVUSFoxGDAW
BgNVBAsMD0FwcGxpZWQgU2VjIExhYjEPMA0GA1UEAwwGZGFrb3RhMB4XDTIzMTEy
ODE0MDY0NVoXDTI0MTEyNzE0MDY0NVowgYIxCzAJBgNVBAYTAkNIMQ8wDQYDVQQI
DAZadXJpY2gxDTALBgNVBAoMBEVUSFoxGDAWBgNVBAsMD0FwcGxpZWQgU2VjIExh
YjEQMA4GA1UEAwwHRGFuaWVsZTETMBEGCSqGSIb3DQEJARYEdGVzdDESMBAGCgmS
JomT8ixkAQEMAnRzMFkwEwYHKoZIzj0CAQYIKoZIzj0DAQcDQgAElf50YBjD5mtx
qms2OdXd0PJDOHYItH45F+yyu1UBuosIx+r+lYqH7FmNN8Dhy4DbyKavzF2xRs30
OMRLWNl/K6NNMEswCQYDVR0TBAIwADAdBgNVHQ4EFgQUd44lK8VcRd2Ztcgfhcy/
7cr1sgIwHwYDVR0jBBgwFoAUEGmZZT1+0RdXeSS0+v1IkKsEW8cwCgYIKoZIzj0E
AwIDZwAwZAIwDX3OkH8imhPj6kaSbr5u/4Q/S0O7TxDWz317epPko7C/lopItPED
OjxYf+vNfnq2AjA58xh68G4BcjPx9Tr+dK9Vlixb5plNs5gLooa+ftjrmPirrZ99
RCyJ8JQhfP8yDsk=
-----END CERTIFICATE-----
